target datalayout = "e-m:e-p270:32:32-p271:32:32-p272:64:64-i64:64-i128:128-f80:128-n8:16:32:64-S128"
target triple = "x86_64-pc-linux-gnu"

%struct.Dch_Man_t_ = type { ptr, ptr, ptr, ptr, ptr, ptr, i32, ptr, ptr, i32, i32, ptr, ptr, ptr, i32, i32, i32, i32, i32, i32, i32, i32, i32, i32, i32, i64, i64, i64, i64, i64, i64, i64, i64, i64 }
%struct.Aig_Man_t_ = type { ptr, ptr, ptr, ptr, ptr, ptr, ptr, %struct.Aig_Obj_t_, i32, i32, i32, i32, i32, i32, [7 x i32], i32, ptr, i32, ptr, i32, ptr, i32, i32, i32, ptr, i32, i32, i32, i32, i32, ptr, ptr, i32, ptr, ptr, i32, ptr, ptr, i32, i32, i32, ptr, ptr, ptr, ptr, ptr, ptr, ptr, ptr, ptr, ptr, ptr, ptr, ptr, ptr, i32, ptr, ptr, ptr, ptr, i32, i64, i64, i64, ptr, ptr }
%struct.Aig_Obj_t_ = type { %union.anon, ptr, ptr, i64, i32, i32, %union.anon.0 }
%union.anon = type { ptr }
%union.anon.0 = type { ptr }
%struct.Dch_Pars_t_ = type { i32, i32, i32, i32, i32, i32, i32, i32, i32, i32, i32, i32, i32, i32, i64, i32, i32 }

@.str = private unnamed_addr constant [64 x i8] c"Parameters: Sim words = %d. Conf limit = %d. SAT var max = %d.\0A\00", align 1
@.str.1 = private unnamed_addr constant [65 x i8] c"AIG nodes : Total = %6d. Dangling = %6d. Main = %6d. (%6.2f %%)\0A\00", align 1
@.str.2 = private unnamed_addr constant [54 x i8] c"SAT solver: Vars = %d. Max cone = %d. Recycles = %d.\0A\00", align 1
@.str.3 = private unnamed_addr constant [60 x i8] c"SAT calls : All = %6d. Unsat = %6d. Sat = %6d. Fail = %6d.\0A\00", align 1
@.str.4 = private unnamed_addr constant [67 x i8] c"Choices   : Lits = %6d. Reprs = %5d. Equivs = %5d. Choices = %5d.\0A\00", align 1
@.str.5 = private unnamed_addr constant [30 x i8] c"Choicing runtime statistics:\0A\00", align 1
@.str.6 = private unnamed_addr constant [12 x i8] c"Sim init   \00", align 1
@.str.7 = private unnamed_addr constant [12 x i8] c"Sim SAT    \00", align 1
@.str.8 = private unnamed_addr constant [12 x i8] c"SAT solving\00", align 1
@.str.9 = private unnamed_addr constant [12 x i8] c"  sat      \00", align 1
@.str.10 = private unnamed_addr constant [12 x i8] c"  unsat    \00", align 1
@.str.11 = private unnamed_addr constant [12 x i8] c"  undecided\00", align 1
@.str.12 = private unnamed_addr constant [12 x i8] c"Choice     \00", align 1
@.str.13 = private unnamed_addr constant [12 x i8] c"Other      \00", align 1
@.str.14 = private unnamed_addr constant [12 x i8] c"TOTAL      \00", align 1
@.str.15 = private unnamed_addr constant [12 x i8] c"Synthesis  \00", align 1
@.str.18 = private unnamed_addr constant [5 x i8] c"%s =\00", align 1
@.str.19 = private unnamed_addr constant [22 x i8] c"%9.2f sec (%6.2f %%)\0A\00", align 1
@.str.20 = private unnamed_addr constant [11 x i8] c"%9.2f sec\0A\00", align 1

; Function Attrs: inlinehint nounwind uwtable
define internal void @Abc_PrintTime(i32 noundef %0, ptr noundef %1, i64 noundef %2) #6 {
  %4 = alloca i32, align 4
  %5 = alloca ptr, align 8
  %6 = alloca i64, align 8
  store i32 %0, ptr %4, align 4, !tbaa !38
  store ptr %1, ptr %5, align 8, !tbaa !67
  store i64 %2, ptr %6, align 8, !tbaa !70
  %7 = load ptr, ptr %5, align 8, !tbaa !67
  call void (i32, ptr, ...) @Abc_Print(i32 noundef 1, ptr noundef @.str.18, ptr noundef %7)
  %8 = load i64, ptr %6, align 8, !tbaa !70
  %9 = sitofp i64 %8 to double
  %10 = fmul double 1.000000e+00, %9
  %11 = fdiv double %10, 1.000000e+06
  call void (i32, ptr, ...) @Abc_Print(i32 noundef 1, ptr noundef @.str.20, double noundef %11)
  ret void
}

; Function Attrs: inlinehint nounwind uwtable
define internal void @Abc_PrintTimeP(i32 noundef %0, ptr noundef %1, i64 noundef %2, i64 noundef %3) #6 {
  %5 = alloca i32, align 4
  %6 = alloca ptr, align 8
  %7 = alloca i64, align 8
  %8 = alloca i64, align 8
  store i32 %0, ptr %5, align 4, !tbaa !38
  store ptr %1, ptr %6, align 8, !tbaa !67
  store i64 %2, ptr %7, align 8, !tbaa !70
  store i64 %3, ptr %8, align 8, !tbaa !70
  %9 = load ptr, ptr %6, align 8, !tbaa !67
  call void (i32, ptr, ...) @Abc_Print(i32 noundef 1, ptr noundef @.str.18, ptr noundef %9)
  %10 = load i64, ptr %7, align 8, !tbaa !70
  %11 = sitofp i64 %10 to double
  %12 = fmul double 1.000000e+00, %11
  %13 = fdiv double %12, 1.000000e+06
  %14 = load i64, ptr %8, align 8, !tbaa !70
  %15 = sitofp i64 %14 to double
  %16 = fcmp une double %15, 0.000000e+00
  br i1 %16, label %17, label %24

17:                                               ; preds = %4
  %18 = load i64, ptr %7, align 8, !tbaa !70
  %19 = sitofp i64 %18 to double
  %20 = fmul double 1.000000e+02, %19
  %21 = load i64, ptr %8, align 8, !tbaa !70
  %22 = sitofp i64 %21 to double
  %23 = fdiv double %20, %22
  br label %25

24:                                               ; preds = %4
  br label %25

25:                                               ; preds = %24, %17
  %26 = phi double [ %23, %17 ], [ 0.000000e+00, %24 ]
  call void (i32, ptr, ...) @Abc_Print(i32 noundef 1, ptr noundef @.str.19, double noundef %13, double noundef %26)
  ret void
}

; Function Attrs: inlinehint nounwind uwtable
define internal i32 @Aig_ManNodeNum(ptr noundef %0) #6 {
  %2 = alloca ptr, align 8
  store ptr %0, ptr %2, align 8, !tbaa !3
  %3 = load ptr, ptr %2, align 8, !tbaa !3
  %4 = getelementptr inbounds nuw %struct.Aig_Man_t_, ptr %3, i32 0, i32 14
  %5 = getelementptr inbounds [7 x i32], ptr %4, i64 0, i64 5
  %6 = load i32, ptr %5, align 4, !tbaa !38
  %7 = load ptr, ptr %2, align 8, !tbaa !3
  %8 = getelementptr inbounds nuw %struct.Aig_Man_t_, ptr %7, i32 0, i32 14
  %9 = getelementptr inbounds [7 x i32], ptr %8, i64 0, i64 6
  %10 = load i32, ptr %9, align 8, !tbaa !38
  %11 = add nsw i32 %6, %10
  ret i32 %11
}

; Function Attrs: nounwind uwtable
define void @Dch_ManPrintStats(ptr noundef %0) #0 {
  %2 = alloca ptr, align 8
  %3 = alloca i32, align 4
  store ptr %0, ptr %2, align 8, !tbaa !10
  call void @llvm.lifetime.start.p0(i64 4, ptr %3) #10
  %4 = load ptr, ptr %2, align 8, !tbaa !10
  %5 = getelementptr inbounds nuw %struct.Dch_Man_t_, ptr %4, i32 0, i32 1
  %6 = load ptr, ptr %5, align 8, !tbaa !21
  %7 = call i32 @Aig_ManNodeNum(ptr noundef %6)
  %8 = sdiv i32 %7, 3
  store i32 %8, ptr %3, align 4, !tbaa !38
  %9 = load ptr, ptr %2, align 8, !tbaa !10
  %10 = getelementptr inbounds nuw %struct.Dch_Man_t_, ptr %9, i32 0, i32 0
  %11 = load ptr, ptr %10, align 8, !tbaa !12
  %12 = getelementptr inbounds nuw %struct.Dch_Pars_t_, ptr %11, i32 0, i32 0
  %13 = load i32, ptr %12, align 8, !tbaa !44
  %14 = load ptr, ptr %2, align 8, !tbaa !10
  %15 = getelementptr inbounds nuw %struct.Dch_Man_t_, ptr %14, i32 0, i32 0
  %16 = load ptr, ptr %15, align 8, !tbaa !12
  %17 = getelementptr inbounds nuw %struct.Dch_Pars_t_, ptr %16, i32 0, i32 1
  %18 = load i32, ptr %17, align 4, !tbaa !46
  %19 = load ptr, ptr %2, align 8, !tbaa !10
  %20 = getelementptr inbounds nuw %struct.Dch_Man_t_, ptr %19, i32 0, i32 0
  %21 = load ptr, ptr %20, align 8, !tbaa !12
  %22 = getelementptr inbounds nuw %struct.Dch_Pars_t_, ptr %21, i32 0, i32 2
  %23 = load i32, ptr %22, align 8, !tbaa !47
  call void (i32, ptr, ...) @Abc_Print(i32 noundef 1, ptr noundef @.str, i32 noundef %13, i32 noundef %18, i32 noundef %23)
  %24 = load ptr, ptr %2, align 8, !tbaa !10
  %25 = getelementptr inbounds nuw %struct.Dch_Man_t_, ptr %24, i32 0, i32 1
  %26 = load ptr, ptr %25, align 8, !tbaa !21
  %27 = call i32 @Aig_ManNodeNum(ptr noundef %26)
  %28 = load ptr, ptr %2, align 8, !tbaa !10
  %29 = getelementptr inbounds nuw %struct.Dch_Man_t_, ptr %28, i32 0, i32 1
  %30 = load ptr, ptr %29, align 8, !tbaa !21
  %31 = call i32 @Aig_ManNodeNum(ptr noundef %30)
  %32 = load i32, ptr %3, align 4, !tbaa !38
  %33 = sub nsw i32 %31, %32
  %34 = load i32, ptr %3, align 4, !tbaa !38
  %35 = load i32, ptr %3, align 4, !tbaa !38
  %36 = sitofp i32 %35 to double
  %37 = fmul double 1.000000e+02, %36
  %38 = load ptr, ptr %2, align 8, !tbaa !10
  %39 = getelementptr inbounds nuw %struct.Dch_Man_t_, ptr %38, i32 0, i32 1
  %40 = load ptr, ptr %39, align 8, !tbaa !21
  %41 = call i32 @Aig_ManNodeNum(ptr noundef %40)
  %42 = sitofp i32 %41 to double
  %43 = fdiv double %37, %42
  call void (i32, ptr, ...) @Abc_Print(i32 noundef 1, ptr noundef @.str.1, i32 noundef %27, i32 noundef %33, i32 noundef %34, double noundef %43)
  %44 = load ptr, ptr %2, align 8, !tbaa !10
  %45 = getelementptr inbounds nuw %struct.Dch_Man_t_, ptr %44, i32 0, i32 6
  %46 = load i32, ptr %45, align 8, !tbaa !22
  %47 = load ptr, ptr %2, align 8, !tbaa !10
  %48 = getelementptr inbounds nuw %struct.Dch_Man_t_, ptr %47, i32 0, i32 15
  %49 = load i32, ptr %48, align 4, !tbaa !48
  %50 = load ptr, ptr %2, align 8, !tbaa !10
  %51 = getelementptr inbounds nuw %struct.Dch_Man_t_, ptr %50, i32 0, i32 9
  %52 = load i32, ptr %51, align 8, !tbaa !49
  call void (i32, ptr, ...) @Abc_Print(i32 noundef 1, ptr noundef @.str.2, i32 noundef %46, i32 noundef %49, i32 noundef %52)
  %53 = load ptr, ptr %2, align 8, !tbaa !10
  %54 = getelementptr inbounds nuw %struct.Dch_Man_t_, ptr %53, i32 0, i32 16
  %55 = load i32, ptr %54, align 8, !tbaa !50
  %56 = load ptr, ptr %2, align 8, !tbaa !10
  %57 = getelementptr inbounds nuw %struct.Dch_Man_t_, ptr %56, i32 0, i32 16
  %58 = load i32, ptr %57, align 8, !tbaa !50
  %59 = load ptr, ptr %2, align 8, !tbaa !10
  %60 = getelementptr inbounds nuw %struct.Dch_Man_t_, ptr %59, i32 0, i32 20
  %61 = load i32, ptr %60, align 8, !tbaa !51
  %62 = sub nsw i32 %58, %61
  %63 = load ptr, ptr %2, align 8, !tbaa !10
  %64 = getelementptr inbounds nuw %struct.Dch_Man_t_, ptr %63, i32 0, i32 18
  %65 = load i32, ptr %64, align 8, !tbaa !52
  %66 = sub nsw i32 %62, %65
  %67 = load ptr, ptr %2, align 8, !tbaa !10
  %68 = getelementptr inbounds nuw %struct.Dch_Man_t_, ptr %67, i32 0, i32 20
  %69 = load i32, ptr %68, align 8, !tbaa !51
  %70 = load ptr, ptr %2, align 8, !tbaa !10
  %71 = getelementptr inbounds nuw %struct.Dch_Man_t_, ptr %70, i32 0, i32 18
  %72 = load i32, ptr %71, align 8, !tbaa !52
  call void (i32, ptr, ...) @Abc_Print(i32 noundef 1, ptr noundef @.str.3, i32 noundef %55, i32 noundef %66, i32 noundef %69, i32 noundef %72)
  %73 = load ptr, ptr %2, align 8, !tbaa !10
  %74 = getelementptr inbounds nuw %struct.Dch_Man_t_, ptr %73, i32 0, i32 21
  %75 = load i32, ptr %74, align 4, !tbaa !53
  %76 = load ptr, ptr %2, align 8, !tbaa !10
  %77 = getelementptr inbounds nuw %struct.Dch_Man_t_, ptr %76, i32 0, i32 22
  %78 = load i32, ptr %77, align 8, !tbaa !54
  %79 = load ptr, ptr %2, align 8, !tbaa !10
  %80 = getelementptr inbounds nuw %struct.Dch_Man_t_, ptr %79, i32 0, i32 23
  %81 = load i32, ptr %80, align 4, !tbaa !55
  %82 = load ptr, ptr %2, align 8, !tbaa !10
  %83 = getelementptr inbounds nuw %struct.Dch_Man_t_, ptr %82, i32 0, i32 24
  %84 = load i32, ptr %83, align 8, !tbaa !56
  call void (i32, ptr, ...) @Abc_Print(i32 noundef 1, ptr noundef @.str.4, i32 noundef %75, i32 noundef %78, i32 noundef %81, i32 noundef %84)
  call void (i32, ptr, ...) @Abc_Print(i32 noundef 1, ptr noundef @.str.5)
  %85 = load ptr, ptr %2, align 8, !tbaa !10
  %86 = getelementptr inbounds nuw %struct.Dch_Man_t_, ptr %85, i32 0, i32 33
  %87 = load i64, ptr %86, align 8, !tbaa !57
  %88 = load ptr, ptr %2, align 8, !tbaa !10
  %89 = getelementptr inbounds nuw %struct.Dch_Man_t_, ptr %88, i32 0, i32 25
  %90 = load i64, ptr %89, align 8, !tbaa !58
  %91 = sub nsw i64 %87, %90
  %92 = load ptr, ptr %2, align 8, !tbaa !10
  %93 = getelementptr inbounds nuw %struct.Dch_Man_t_, ptr %92, i32 0, i32 26
  %94 = load i64, ptr %93, align 8, !tbaa !59
  %95 = sub nsw i64 %91, %94
  %96 = load ptr, ptr %2, align 8, !tbaa !10
  %97 = getelementptr inbounds nuw %struct.Dch_Man_t_, ptr %96, i32 0, i32 27
  %98 = load i64, ptr %97, align 8, !tbaa !60
  %99 = sub nsw i64 %95, %98
  %100 = load ptr, ptr %2, align 8, !tbaa !10
  %101 = getelementptr inbounds nuw %struct.Dch_Man_t_, ptr %100, i32 0, i32 31
  %102 = load i64, ptr %101, align 8, !tbaa !61
  %103 = sub nsw i64 %99, %102
  %104 = load ptr, ptr %2, align 8, !tbaa !10
  %105 = getelementptr inbounds nuw %struct.Dch_Man_t_, ptr %104, i32 0, i32 32
  store i64 %103, ptr %105, align 8, !tbaa !62
  %106 = load ptr, ptr %2, align 8, !tbaa !10
  %107 = getelementptr inbounds nuw %struct.Dch_Man_t_, ptr %106, i32 0, i32 25
  %108 = load i64, ptr %107, align 8, !tbaa !58
  %109 = load ptr, ptr %2, align 8, !tbaa !10
  %110 = getelementptr inbounds nuw %struct.Dch_Man_t_, ptr %109, i32 0, i32 33
  %111 = load i64, ptr %110, align 8, !tbaa !57
  call void @Abc_PrintTimeP(i32 noundef 1, ptr noundef @.str.6, i64 noundef %108, i64 noundef %111)
  %112 = load ptr, ptr %2, align 8, !tbaa !10
  %113 = getelementptr inbounds nuw %struct.Dch_Man_t_, ptr %112, i32 0, i32 26
  %114 = load i64, ptr %113, align 8, !tbaa !59
  %115 = load ptr, ptr %2, align 8, !tbaa !10
  %116 = getelementptr inbounds nuw %struct.Dch_Man_t_, ptr %115, i32 0, i32 33
  %117 = load i64, ptr %116, align 8, !tbaa !57
  call void @Abc_PrintTimeP(i32 noundef 1, ptr noundef @.str.7, i64 noundef %114, i64 noundef %117)
  %118 = load ptr, ptr %2, align 8, !tbaa !10
  %119 = getelementptr inbounds nuw %struct.Dch_Man_t_, ptr %118, i32 0, i32 27
  %120 = load i64, ptr %119, align 8, !tbaa !60
  %121 = load ptr, ptr %2, align 8, !tbaa !10
  %122 = getelementptr inbounds nuw %struct.Dch_Man_t_, ptr %121, i32 0, i32 33
  %123 = load i64, ptr %122, align 8, !tbaa !57
  call void @Abc_PrintTimeP(i32 noundef 1, ptr noundef @.str.8, i64 noundef %120, i64 noundef %123)
  %124 = load ptr, ptr %2, align 8, !tbaa !10
  %125 = getelementptr inbounds nuw %struct.Dch_Man_t_, ptr %124, i32 0, i32 28
  %126 = load i64, ptr %125, align 8, !tbaa !63
  %127 = load ptr, ptr %2, align 8, !tbaa !10
  %128 = getelementptr inbounds nuw %struct.Dch_Man_t_, ptr %127, i32 0, i32 33
  %129 = load i64, ptr %128, align 8, !tbaa !57
  call void @Abc_PrintTimeP(i32 noundef 1, ptr noundef @.str.9, i64 noundef %126, i64 noundef %129)
  %130 = load ptr, ptr %2, align 8, !tbaa !10
  %131 = getelementptr inbounds nuw %struct.Dch_Man_t_, ptr %130, i32 0, i32 29
  %132 = load i64, ptr %131, align 8, !tbaa !64
  %133 = load ptr, ptr %2, align 8, !tbaa !10
  %134 = getelementptr inbounds nuw %struct.Dch_Man_t_, ptr %133, i32 0, i32 33
  %135 = load i64, ptr %134, align 8, !tbaa !57
  call void @Abc_PrintTimeP(i32 noundef 1, ptr noundef @.str.10, i64 noundef %132, i64 noundef %135)
  %136 = load ptr, ptr %2, align 8, !tbaa !10
  %137 = getelementptr inbounds nuw %struct.Dch_Man_t_, ptr %136, i32 0, i32 30
  %138 = load i64, ptr %137, align 8, !tbaa !65
  %139 = load ptr, ptr %2, align 8, !tbaa !10
  %140 = getelementptr inbounds nuw %struct.Dch_Man_t_, ptr %139, i32 0, i32 33
  %141 = load i64, ptr %140, align 8, !tbaa !57
  call void @Abc_PrintTimeP(i32 noundef 1, ptr noundef @.str.11, i64 noundef %138, i64 noundef %141)
  %142 = load ptr, ptr %2, align 8, !tbaa !10
  %143 = getelementptr inbounds nuw %struct.Dch_Man_t_, ptr %142, i32 0, i32 31
  %144 = load i64, ptr %143, align 8, !tbaa !61
  %145 = load ptr, ptr %2, align 8, !tbaa !10
  %146 = getelementptr inbounds nuw %struct.Dch_Man_t_, ptr %145, i32 0, i32 33
  %147 = load i64, ptr %146, align 8, !tbaa !57
  call void @Abc_PrintTimeP(i32 noundef 1, ptr noundef @.str.12, i64 noundef %144, i64 noundef %147)
  %148 = load ptr, ptr %2, align 8, !tbaa !10
  %149 = getelementptr inbounds nuw %struct.Dch_Man_t_, ptr %148, i32 0, i32 32
  %150 = load i64, ptr %149, align 8, !tbaa !62
  %151 = load ptr, ptr %2, align 8, !tbaa !10
  %152 = getelementptr inbounds nuw %struct.Dch_Man_t_, ptr %151, i32 0, i32 33
  %153 = load i64, ptr %152, align 8, !tbaa !57
  call void @Abc_PrintTimeP(i32 noundef 1, ptr noundef @.str.13, i64 noundef %150, i64 noundef %153)
  %154 = load ptr, ptr %2, align 8, !tbaa !10
  %155 = getelementptr inbounds nuw %struct.Dch_Man_t_, ptr %154, i32 0, i32 33
  %156 = load i64, ptr %155, align 8, !tbaa !57
  %157 = load ptr, ptr %2, align 8, !tbaa !10
  %158 = getelementptr inbounds nuw %struct.Dch_Man_t_, ptr %157, i32 0, i32 33
  %159 = load i64, ptr %158, align 8, !tbaa !57
  call void @Abc_PrintTimeP(i32 noundef 1, ptr noundef @.str.14, i64 noundef %156, i64 noundef %159)
  %160 = load ptr, ptr %2, align 8, !tbaa !10
  %161 = getelementptr inbounds nuw %struct.Dch_Man_t_, ptr %160, i32 0, i32 0
  %162 = load ptr, ptr %161, align 8, !tbaa !12
  %163 = getelementptr inbounds nuw %struct.Dch_Pars_t_, ptr %162, i32 0, i32 14
  %164 = load i64, ptr %163, align 8, !tbaa !66
  %165 = icmp ne i64 %164, 0
  br i1 %165, label %166, label %172

166:                                              ; preds = %1
  %167 = load ptr, ptr %2, align 8, !tbaa !10
  %168 = getelementptr inbounds nuw %struct.Dch_Man_t_, ptr %167, i32 0, i32 0
  %169 = load ptr, ptr %168, align 8, !tbaa !12
  %170 = getelementptr inbounds nuw %struct.Dch_Pars_t_, ptr %169, i32 0, i32 14
  %171 = load i64, ptr %170, align 8, !tbaa !66
  call void @Abc_PrintTime(i32 noundef 1, ptr noundef @.str.15, i64 noundef %171)
  br label %172

172:                                              ; preds = %166, %1
  call void @llvm.lifetime.end.p0(i64 4, ptr %3) #10
  ret void
}