; Function Attrs: nounwind uwtable
define void @Dch_ManPrintStats(ptr noundef captures(none) initializes((208, 216)) %0) local_unnamed_addr #0 {
  %2 = getelementptr inbounds nuw i8, ptr %0, i64 8
  %3 = load ptr, ptr %2, align 8, !tbaa !17
  %4 = getelementptr i8, ptr %3, i64 148
  %.val = load i32, ptr %4, align 4, !tbaa !38
  %5 = getelementptr i8, ptr %3, i64 152
  %.val48 = load i32, ptr %5, align 8, !tbaa !38
  %6 = add nsw i32 %.val48, %.val
  %7 = sdiv i32 %6, 3
  %8 = load ptr, ptr %0, align 8, !tbaa !3
  %9 = load i32, ptr %8, align 8, !tbaa !39
  %10 = getelementptr inbounds nuw i8, ptr %8, i64 4
  %11 = load i32, ptr %10, align 4, !tbaa !41
  %12 = getelementptr inbounds nuw i8, ptr %8, i64 8
  %13 = load i32, ptr %12, align 8, !tbaa !42
  tail call void (i32, ptr, ...) @Abc_Print(i32 poison, ptr noundef nonnull @.str, i32 noundef %9, i32 noundef %11, i32 noundef %13)
  %14 = load ptr, ptr %2, align 8, !tbaa !17
  %15 = getelementptr i8, ptr %14, i64 148
  %.val49 = load i32, ptr %15, align 4, !tbaa !38
  %16 = getelementptr i8, ptr %14, i64 152
  %.val50 = load i32, ptr %16, align 8, !tbaa !38
  %17 = add nsw i32 %.val50, %.val49
  %18 = sub nsw i32 %17, %7
  %19 = sitofp i32 %7 to double
  %20 = fmul double %19, 1.000000e+02
  %21 = sitofp i32 %17 to double
  %22 = fdiv double %20, %21
  tail call void (i32, ptr, ...) @Abc_Print(i32 poison, ptr noundef nonnull @.str.1, i32 noundef %17, i32 noundef %18, i32 noundef %7, double noundef %22)
  %23 = getelementptr inbounds nuw i8, ptr %0, i64 48
  %24 = load i32, ptr %23, align 8, !tbaa !18
  %25 = getelementptr inbounds nuw i8, ptr %0, i64 108
  %26 = load i32, ptr %25, align 4, !tbaa !43
  %27 = getelementptr inbounds nuw i8, ptr %0, i64 72
  %28 = load i32, ptr %27, align 8, !tbaa !44
  tail call void (i32, ptr, ...) @Abc_Print(i32 poison, ptr noundef nonnull @.str.2, i32 noundef %24, i32 noundef %26, i32 noundef %28)
  %29 = getelementptr inbounds nuw i8, ptr %0, i64 112
  %30 = load i32, ptr %29, align 8, !tbaa !45
  %31 = getelementptr inbounds nuw i8, ptr %0, i64 128
  %32 = load i32, ptr %31, align 8, !tbaa !46
  %33 = getelementptr inbounds nuw i8, ptr %0, i64 120
  %34 = load i32, ptr %33, align 8, !tbaa !47
  %35 = add i32 %32, %34
  %36 = sub i32 %30, %35
  tail call void (i32, ptr, ...) @Abc_Print(i32 poison, ptr noundef nonnull @.str.3, i32 noundef %30, i32 noundef %36, i32 noundef %32, i32 noundef %34)
  %37 = getelementptr inbounds nuw i8, ptr %0, i64 132
  %38 = load i32, ptr %37, align 4, !tbaa !48
  %39 = getelementptr inbounds nuw i8, ptr %0, i64 136
  %40 = load i32, ptr %39, align 8, !tbaa !49
  %41 = getelementptr inbounds nuw i8, ptr %0, i64 140
  %42 = load i32, ptr %41, align 4, !tbaa !50
  %43 = getelementptr inbounds nuw i8, ptr %0, i64 144
  %44 = load i32, ptr %43, align 8, !tbaa !51
  tail call void (i32, ptr, ...) @Abc_Print(i32 poison, ptr noundef nonnull @.str.4, i32 noundef %38, i32 noundef %40, i32 noundef %42, i32 noundef %44)
  tail call void (i32, ptr, ...) @Abc_Print(i32 poison, ptr noundef nonnull @.str.5)
  %45 = getelementptr inbounds nuw i8, ptr %0, i64 216
  %46 = load i64, ptr %45, align 8, !tbaa !52
  %47 = getelementptr inbounds nuw i8, ptr %0, i64 152
  %48 = load i64, ptr %47, align 8, !tbaa !53
  %49 = getelementptr inbounds nuw i8, ptr %0, i64 160
  %50 = load i64, ptr %49, align 8, !tbaa !54
  %51 = getelementptr inbounds nuw i8, ptr %0, i64 168
  %52 = load i64, ptr %51, align 8, !tbaa !55
  %53 = getelementptr inbounds nuw i8, ptr %0, i64 200
  %54 = load i64, ptr %53, align 8, !tbaa !56
  %55 = add i64 %48, %50
  %56 = add i64 %55, %52
  %57 = add i64 %56, %54
  %58 = sub i64 %46, %57
  %59 = getelementptr inbounds nuw i8, ptr %0, i64 208
  store i64 %58, ptr %59, align 8, !tbaa !57
  tail call void (i32, ptr, ...) @Abc_Print(i32 poison, ptr noundef nonnull @.str.18, ptr noundef nonnull @.str.6)
  %60 = sitofp i64 %48 to double
  %.not.i = icmp eq i64 %46, 0
  %61 = sitofp i64 %46 to double
  %62 = fmul double %60, 1.000000e+02
  %63 = fdiv double %62, %61
  %64 = select i1 %.not.i, double 0.000000e+00, double %63
  %65 = fdiv double %60, 1.000000e+06
  tail call void (i32, ptr, ...) @Abc_Print(i32 poison, ptr noundef nonnull @.str.19, double noundef %65, double noundef %64)
  %66 = load i64, ptr %49, align 8, !tbaa !54
  %67 = load i64, ptr %45, align 8, !tbaa !52
  tail call void (i32, ptr, ...) @Abc_Print(i32 poison, ptr noundef nonnull @.str.18, ptr noundef nonnull @.str.7)
  %68 = sitofp i64 %66 to double
  %.not.i55 = icmp eq i64 %67, 0
  %69 = sitofp i64 %67 to double
  %70 = fmul double %68, 1.000000e+02
  %71 = fdiv double %70, %69
  %72 = select i1 %.not.i55, double 0.000000e+00, double %71
  %73 = fdiv double %68, 1.000000e+06
  tail call void (i32, ptr, ...) @Abc_Print(i32 poison, ptr noundef nonnull @.str.19, double noundef %73, double noundef %72)
  %74 = load i64, ptr %51, align 8, !tbaa !55
  %75 = load i64, ptr %45, align 8, !tbaa !52
  tail call void (i32, ptr, ...) @Abc_Print(i32 poison, ptr noundef nonnull @.str.18, ptr noundef nonnull @.str.8)
  %76 = sitofp i64 %74 to double
  %.not.i56 = icmp eq i64 %75, 0
  %77 = sitofp i64 %75 to double
  %78 = fmul double %76, 1.000000e+02
  %79 = fdiv double %78, %77
  %80 = select i1 %.not.i56, double 0.000000e+00, double %79
  %81 = fdiv double %76, 1.000000e+06
  tail call void (i32, ptr, ...) @Abc_Print(i32 poison, ptr noundef nonnull @.str.19, double noundef %81, double noundef %80)
  %82 = getelementptr inbounds nuw i8, ptr %0, i64 176
  %83 = load i64, ptr %82, align 8, !tbaa !58
  %84 = load i64, ptr %45, align 8, !tbaa !52
  tail call void (i32, ptr, ...) @Abc_Print(i32 poison, ptr noundef nonnull @.str.18, ptr noundef nonnull @.str.9)
  %85 = sitofp i64 %83 to double
  %.not.i57 = icmp eq i64 %84, 0
  %86 = sitofp i64 %84 to double
  %87 = fmul double %85, 1.000000e+02
  %88 = fdiv double %87, %86
  %89 = select i1 %.not.i57, double 0.000000e+00, double %88
  %90 = fdiv double %85, 1.000000e+06
  tail call void (i32, ptr, ...) @Abc_Print(i32 poison, ptr noundef nonnull @.str.19, double noundef %90, double noundef %89)
  %91 = getelementptr inbounds nuw i8, ptr %0, i64 184
  %92 = load i64, ptr %91, align 8, !tbaa !59
  %93 = load i64, ptr %45, align 8, !tbaa !52
  tail call void (i32, ptr, ...) @Abc_Print(i32 poison, ptr noundef nonnull @.str.18, ptr noundef nonnull @.str.10)
  %94 = sitofp i64 %92 to double
  %.not.i58 = icmp eq i64 %93, 0
  %95 = sitofp i64 %93 to double
  %96 = fmul double %94, 1.000000e+02
  %97 = fdiv double %96, %95
  %98 = select i1 %.not.i58, double 0.000000e+00, double %97
  %99 = fdiv double %94, 1.000000e+06
  tail call void (i32, ptr, ...) @Abc_Print(i32 poison, ptr noundef nonnull @.str.19, double noundef %99, double noundef %98)
  %100 = getelementptr inbounds nuw i8, ptr %0, i64 192
  %101 = load i64, ptr %100, align 8, !tbaa !60
  %102 = load i64, ptr %45, align 8, !tbaa !52
  tail call void (i32, ptr, ...) @Abc_Print(i32 poison, ptr noundef nonnull @.str.18, ptr noundef nonnull @.str.11)
  %103 = sitofp i64 %101 to double
  %.not.i59 = icmp eq i64 %102, 0
  %104 = sitofp i64 %102 to double
  %105 = fmul double %103, 1.000000e+02
  %106 = fdiv double %105, %104
  %107 = select i1 %.not.i59, double 0.000000e+00, double %106
  %108 = fdiv double %103, 1.000000e+06
  tail call void (i32, ptr, ...) @Abc_Print(i32 poison, ptr noundef nonnull @.str.19, double noundef %108, double noundef %107)
  %109 = load i64, ptr %53, align 8, !tbaa !56
  %110 = load i64, ptr %45, align 8, !tbaa !52
  tail call void (i32, ptr, ...) @Abc_Print(i32 poison, ptr noundef nonnull @.str.18, ptr noundef nonnull @.str.12)
  %111 = sitofp i64 %109 to double
  %.not.i60 = icmp eq i64 %110, 0
  %112 = sitofp i64 %110 to double
  %113 = fmul double %111, 1.000000e+02
  %114 = fdiv double %113, %112
  %115 = select i1 %.not.i60, double 0.000000e+00, double %114
  %116 = fdiv double %111, 1.000000e+06
  tail call void (i32, ptr, ...) @Abc_Print(i32 poison, ptr noundef nonnull @.str.19, double noundef %116, double noundef %115)
  %117 = load i64, ptr %59, align 8, !tbaa !57
  %118 = load i64, ptr %45, align 8, !tbaa !52
  tail call void (i32, ptr, ...) @Abc_Print(i32 poison, ptr noundef nonnull @.str.18, ptr noundef nonnull @.str.13)
  %119 = sitofp i64 %117 to double
  %.not.i61 = icmp eq i64 %118, 0
  %120 = sitofp i64 %118 to double
  %121 = fmul double %119, 1.000000e+02
  %122 = fdiv double %121, %120
  %123 = select i1 %.not.i61, double 0.000000e+00, double %122
  %124 = fdiv double %119, 1.000000e+06
  tail call void (i32, ptr, ...) @Abc_Print(i32 poison, ptr noundef nonnull @.str.19, double noundef %124, double noundef %123)
  %125 = load i64, ptr %45, align 8, !tbaa !52
  tail call void (i32, ptr, ...) @Abc_Print(i32 poison, ptr noundef nonnull @.str.18, ptr noundef nonnull @.str.14)
  %126 = sitofp i64 %125 to double
  %.not.i62 = icmp eq i64 %125, 0
  %127 = fmul double %126, 1.000000e+02
  %128 = fdiv double %127, %126
  %129 = select i1 %.not.i62, double 0.000000e+00, double %128
  %130 = fdiv double %126, 1.000000e+06
  tail call void (i32, ptr, ...) @Abc_Print(i32 poison, ptr noundef nonnull @.str.19, double noundef %130, double noundef %129)
  %131 = load ptr, ptr %0, align 8, !tbaa !3
  %132 = getelementptr inbounds nuw i8, ptr %131, i64 56
  %133 = load i64, ptr %132, align 8, !tbaa !61
  %.not = icmp eq i64 %133, 0
  br i1 %.not, label %137, label %134

134:                                              ; preds = %1
  tail call void (i32, ptr, ...) @Abc_Print(i32 poison, ptr noundef nonnull @.str.18, ptr noundef nonnull @.str.15)
  %135 = sitofp i64 %133 to double
  %136 = fdiv double %135, 1.000000e+06
  tail call void (i32, ptr, ...) @Abc_Print(i32 poison, ptr noundef nonnull @.str.20, double noundef %136)
  br label %137

137:                                              ; preds = %134, %1
  ret void
}